; Function Attrs: mustprogress nofree norecurse nosync nounwind willreturn memory(argmem: write) uwtable
define range(i32 -173, 1) i32 @wc_InitSha512_ex(ptr noundef writeonly captures(address_is_null) %0, ptr noundef %1, i32 noundef %2) local_unnamed_addr #0 {
  %4 = icmp eq ptr %0, null
  br i1 %4, label %InitSha512_Family.exit, label %InitSha512.exit

InitSha512.exit:                                  ; preds = %3
  %5 = getelementptr inbounds nuw i8, ptr %0, i64 216
  store ptr %1, ptr %5, align 8, !tbaa !3
  store i64 7640891576956012808, ptr %0, align 8, !tbaa !10
  %6 = getelementptr inbounds nuw i8, ptr %0, i64 8
  store i64 -4942790177534073029, ptr %6, align 8, !tbaa !10
  %7 = getelementptr inbounds nuw i8, ptr %0, i64 16
  store i64 4354685564936845355, ptr %7, align 8, !tbaa !10
  %8 = getelementptr inbounds nuw i8, ptr %0, i64 24
  store i64 -6534734903238641935, ptr %8, align 8, !tbaa !10
  %9 = getelementptr inbounds nuw i8, ptr %0, i64 32
  store i64 5840696475078001361, ptr %9, align 8, !tbaa !10
  %10 = getelementptr inbounds nuw i8, ptr %0, i64 40
  store i64 -7276294671716946913, ptr %10, align 8, !tbaa !10
  %11 = getelementptr inbounds nuw i8, ptr %0, i64 48
  store i64 2270897969802886507, ptr %11, align 8, !tbaa !10
  %12 = getelementptr inbounds nuw i8, ptr %0, i64 56
  store i64 6620516959819538809, ptr %12, align 8, !tbaa !10
  %13 = getelementptr inbounds nuw i8, ptr %0, i64 192
  store i32 0, ptr %13, align 8, !tbaa !11
  %14 = getelementptr inbounds nuw i8, ptr %0, i64 200
  tail call void @llvm.memset.p0.i64(ptr noundef nonnull align 8 dereferenceable(16) %14, i8 0, i64 16, i1 false)
  br label %InitSha512_Family.exit

InitSha512_Family.exit:                           ; preds = %3, %InitSha512.exit
  %.0.i = phi i32 [ -173, %3 ], [ 0, %InitSha512.exit ]
  ret i32 %.0.i
}